(dp0
S'193.1.12.229'
p1
S'dub'
p2
sS'4.71.251.160'
p3
S'ord'
p4
sS'217.163.1.75'
p5
S'lhr'
p6
sS'163.22.28.37'
p7
S'tpe'
p8
sS'213.200.99.216'
p9
S'mil'
p10
sS'212.162.51.114'
p11
S'prg'
p12
sS'83.212.4.10'
p13
S'ath'
p14
sS'109.239.110.11'
p15
S'lba'
p16
sS'197.136.0.88'
p17
S'nbo'
p18
sS'216.156.197.139'
p19
S'iad'
p20
sS'193.1.12.216'
p21
g2
sS'149.20.5.88'
p22
S'nuq'
p23
sS'41.231.21.11'
p24
S'tun'
p25
sS'38.106.70.147'
p26
S'lga'
p27
sS'213.248.112.75'
p28
S'arn'
p29
sS'91.239.96.75'
p30
S'lju'
p31
sS'196.24.45.152'
p32
S'jnb'
p33
sS'80.239.142.233'
p34
S'ham'
p35
sS'212.162.51.101'
p36
g12
sS'72.26.217.103'
p37
S'ams'
p38
sS'72.26.217.88'
p39
g38
sS'83.212.5.164'
p40
g14
sS'213.244.128.139'
p41
g38
sS'91.239.96.88'
p42
g31
sS'38.102.0.83'
p43
S'sea'
p44
sS'82.116.199.11'
p45
S'lca'
p46
sS'194.116.85.216'
p47
S'trn'
p48
sS'38.107.216.45'
p49
S'dfw'
p50
sS'81.167.39.11'
p51
S'svg'
p52
sS'203.5.76.166'
p53
S'syd'
p54
sS'74.63.50.47'
p55
g27
sS'193.1.12.203'
p56
g2
sS'4.71.210.237'
p57
S'mia'
p58
sS'213.200.103.165'
p59
S'mad'
p60
sS'196.24.45.165'
p61
g33
sS'38.102.0.109'
p62
g44
sS'163.7.129.37'
p63
S'akl'
p64
sS'149.20.5.101'
p65
g23
sS'38.102.0.97'
p66
g44
sS'194.116.85.203'
p67
g48
sS'38.98.51.20'
p68
S'lax'
p69
sS'175.45.79.11'
p70
g54
sS'4.71.210.224'
p71
g58
sS'213.200.103.152'
p72
g60
sS'194.116.85.229'
p73
g48
sS'38.98.51.45'
p74
g69
sS'217.163.1.88'
p75
g6
sS'74.63.50.32'
p76
g27
sS'80.239.142.216'
p77
g35
sS'212.162.51.88'
p78
g12
sS'4.71.254.160'
p79
S'atl'
p80
sS'213.208.152.24'
p81
S'vie'
p82
sS'103.10.233.37'
p83
S'wlg'
p84
sS'163.7.129.24'
p85
g64
sS'213.244.128.152'
p86
g38
sS'149.20.5.114'
p87
g23
sS'81.167.39.37'
p88
g52
sS'41.231.21.24'
p89
g25
sS'38.98.51.33'
p90
g69
sS'175.45.79.24'
p91
g54
sS'4.71.210.211'
p92
g58
sS'203.178.130.229'
p93
S'hnd'
p94
sS'80.239.142.203'
p95
g35
sS'83.212.5.152'
p96
g14
sS'4.71.254.173'
p97
g80
sS'163.7.129.11'
p98
g64
sS'213.244.128.164'
p99
g38
sS'80.239.168.234'
p100
S'par'
p101
sS'103.10.233.24'
p102
g84
sS'38.107.216.32'
p103
g50
sS'91.239.96.101'
p104
g31
sS'175.45.79.37'
p105
g54
sS'81.167.39.24'
p106
g52
sS'41.231.21.37'
p107
g25
sS'38.106.70.160'
p108
g27
sS'82.116.199.24'
p109
g46
sS'64.9.225.167'
p110
g23
sS'213.200.103.139'
p111
g60
sS'149.20.5.75'
p112
g23
sS'74.63.50.19'
p113
g27
sS'4.71.254.147'
p114
g80
sS'103.10.233.11'
p115
g84
sS'213.208.152.37'
p116
g82
sS'197.136.0.75'
p117
g18
sS'216.156.197.165'
p118
g20
sS'213.200.99.229'
p119
g10
sS'203.5.76.151'
p120
g54
sS'83.212.4.24'
p121
g14
sS'109.239.110.24'
p122
g16
sS'38.106.70.173'
p123
g27
sS'197.136.0.101'
p124
g18
sS'217.163.1.101'
p125
g6
sS'64.9.225.154'
p126
g23
sS'64.9.225.187'
p127
g23
sS'4.71.251.147'
p128
g4
sS'72.26.217.74'
p129
g38
sS'163.22.28.11'
p130
g8
sS'83.212.5.139'
p131
g14
sS'38.107.216.17'
p132
g50
sS'83.212.4.37'
p133
g14
sS'109.239.110.37'
p134
g16
sS'203.178.130.216'
p135
g94
sS'64.9.225.141'
p136
g23
sS'196.24.45.139'
p137
g33
sS'4.71.251.173'
p138
g4
sS'213.208.152.11'
p139
g82
sS'80.239.168.203'
p140
g101
sS'163.22.28.24'
p141
g8
sS'213.248.112.101'
p142
g29
sS'213.200.99.203'
p143
g10
sS'80.239.168.216'
p144
g101
sS'216.156.197.152'
p145
g20
sS'213.248.112.88'
p146
g29
sS'82.116.199.37'
p147
g46
sS'203.178.130.203'
p148
g94
sS'203.5.76.140'
p149
g54
s.